target datalayout = "e-m:e-p270:32:32-p271:32:32-p272:64:64-i64:64-i128:128-f80:128-n8:16:32:64-S128"
target triple = "x86_64-pc-linux-gnu"

@progname = internal global ptr null, align 8
@argv0 = internal global ptr null, align 8
@pgdata_opt = internal global ptr null, align 8
@post_opts = internal global ptr null, align 8
@exec_path = internal global ptr null, align 8
@silent_mode = internal global i8 0, align 1
@.str.26 = private unnamed_addr constant [7 x i8] c"initdb\00", align 1
@.str.103 = private unnamed_addr constant [1 x i8] zeroinitializer, align 1
@.str.107 = private unnamed_addr constant [29 x i8] c"initdb (PostgreSQL) 18devel\0A\00", align 1
@.str.108 = private unnamed_addr constant [10 x i8] c"\22%s\22 %s%s\00", align 1
@.str.109 = private unnamed_addr constant [17 x i8] c"\22%s\22 %s%s > \22%s\22\00", align 1
@.str.110 = private unnamed_addr constant [10 x i8] c"/dev/null\00", align 1
@.str.111 = private unnamed_addr constant [43 x i8] c"%s: database system initialization failed\0A\00", align 1

; Function Attrs: nounwind uwtable
define internal void @do_init() #0 {
  %1 = alloca ptr, align 8
  call void @llvm.lifetime.start.p0(i64 8, ptr %1) #10
  %2 = load ptr, ptr @exec_path, align 8
  %3 = icmp eq ptr %2, null
  br i1 %3, label %4, label %7

4:                                                ; preds = %0
  %5 = load ptr, ptr @argv0, align 8
  %6 = call ptr @find_other_exec_or_die(ptr noundef %5, ptr noundef @.str.26, ptr noundef @.str.107)
  store ptr %6, ptr @exec_path, align 8
  br label %7

7:                                                ; preds = %4, %0
  %8 = load ptr, ptr @pgdata_opt, align 8
  %9 = icmp eq ptr %8, null
  br i1 %9, label %10, label %11

10:                                               ; preds = %7
  store ptr @.str.103, ptr @pgdata_opt, align 8
  br label %11

11:                                               ; preds = %10, %7
  %12 = load ptr, ptr @post_opts, align 8
  %13 = icmp eq ptr %12, null
  br i1 %13, label %14, label %15

14:                                               ; preds = %11
  store ptr @.str.103, ptr @post_opts, align 8
  br label %15

15:                                               ; preds = %14, %11
  %16 = load i8, ptr @silent_mode, align 1, !range !6, !noundef !7
  %17 = trunc i8 %16 to i1
  br i1 %17, label %23, label %18

18:                                               ; preds = %15
  %19 = load ptr, ptr @exec_path, align 8
  %20 = load ptr, ptr @pgdata_opt, align 8
  %21 = load ptr, ptr @post_opts, align 8
  %22 = call ptr (ptr, ...) @psprintf(ptr noundef @.str.108, ptr noundef %19, ptr noundef %20, ptr noundef %21)
  store ptr %22, ptr %1, align 8
  br label %28

23:                                               ; preds = %15
  %24 = load ptr, ptr @exec_path, align 8
  %25 = load ptr, ptr @pgdata_opt, align 8
  %26 = load ptr, ptr @post_opts, align 8
  %27 = call ptr (ptr, ...) @psprintf(ptr noundef @.str.109, ptr noundef %24, ptr noundef %25, ptr noundef %26, ptr noundef @.str.110)
  store ptr %27, ptr %1, align 8
  br label %28

28:                                               ; preds = %23, %18
  %29 = call i32 @fflush(ptr noundef null)
  %30 = load ptr, ptr %1, align 8
  %31 = call i32 @system(ptr noundef %30)
  %32 = icmp ne i32 %31, 0
  br i1 %32, label %33, label %35

33:                                               ; preds = %28
  %34 = load ptr, ptr @progname, align 8
  call void (ptr, ...) @write_stderr(ptr noundef @.str.111, ptr noundef %34)
  call void @exit(i32 noundef 1) #12
  unreachable

35:                                               ; preds = %28
  call void @llvm.lifetime.end.p0(i64 8, ptr %1) #10
  ret void
}