; Function Attrs: nounwind uwtable
define internal fastcc void @do_init() unnamed_addr #5 {
  %1 = load ptr, ptr @exec_path, align 8
  %2 = icmp eq ptr %1, null
  br i1 %2, label %3, label %6

3:                                                ; preds = %0
  %4 = load ptr, ptr @argv0, align 8
  %5 = tail call fastcc ptr @find_other_exec_or_die(ptr noundef %4, ptr noundef nonnull @.str.26, ptr noundef nonnull @.str.107)
  store ptr %5, ptr @exec_path, align 8
  br label %6

6:                                                ; preds = %3, %0
  %7 = phi ptr [ %5, %3 ], [ %1, %0 ]
  %8 = load ptr, ptr @pgdata_opt, align 8
  %9 = icmp eq ptr %8, null
  br i1 %9, label %10, label %11

10:                                               ; preds = %6
  store ptr @.str.103, ptr @pgdata_opt, align 8
  br label %11

11:                                               ; preds = %10, %6
  %12 = phi ptr [ @.str.103, %10 ], [ %8, %6 ]
  %13 = load ptr, ptr @post_opts, align 8
  %14 = icmp eq ptr %13, null
  br i1 %14, label %15, label %16

15:                                               ; preds = %11
  store ptr @.str.103, ptr @post_opts, align 8
  br label %16

16:                                               ; preds = %15, %11
  %17 = phi ptr [ @.str.103, %15 ], [ %13, %11 ]
  %.b1 = load i1, ptr @silent_mode, align 1
  br i1 %.b1, label %20, label %18

18:                                               ; preds = %16
  %19 = tail call ptr (ptr, ...) @psprintf(ptr noundef nonnull @.str.108, ptr noundef %7, ptr noundef nonnull %12, ptr noundef nonnull %17) #17
  br label %22

20:                                               ; preds = %16
  %21 = tail call ptr (ptr, ...) @psprintf(ptr noundef nonnull @.str.109, ptr noundef %7, ptr noundef nonnull %12, ptr noundef nonnull %17, ptr noundef nonnull @.str.110) #17
  br label %22

22:                                               ; preds = %20, %18
  %.0 = phi ptr [ %21, %20 ], [ %19, %18 ]
  %23 = tail call i32 @fflush(ptr noundef null)
  %24 = tail call i32 @system(ptr noundef %.0) #17
  %.not = icmp eq i32 %24, 0
  br i1 %.not, label %27, label %25

25:                                               ; preds = %22
  %26 = load ptr, ptr @progname, align 8
  tail call void (ptr, ...) @write_stderr(ptr noundef nonnull @.str.111, ptr noundef %26)
  tail call void @exit(i32 noundef 1) #20
  unreachable

27:                                               ; preds = %22
  ret void
}